target datalayout = "e-m:e-p270:32:32-p271:32:32-p272:64:64-i64:64-i128:128-f80:128-n8:16:32:64-S128"
target triple = "x86_64-pc-linux-gnu"

%struct.bitmap = type { ptr, i64 }

; Function Attrs: nounwind uwtable
define dso_local ptr @bitmap_to_ewah(ptr noundef %0) #0 {
  %2 = alloca ptr, align 8
  %3 = alloca ptr, align 8
  %4 = alloca i64, align 8
  %5 = alloca i64, align 8
  %6 = alloca i64, align 8
  store ptr %0, ptr %2, align 8, !tbaa !8
  call void @llvm.lifetime.start.p0(i64 8, ptr %3) #8
  %7 = call ptr @ewah_new()
  store ptr %7, ptr %3, align 8, !tbaa !16
  call void @llvm.lifetime.start.p0(i64 8, ptr %4) #8
  call void @llvm.lifetime.start.p0(i64 8, ptr %5) #8
  store i64 0, ptr %5, align 8, !tbaa !4
  call void @llvm.lifetime.start.p0(i64 8, ptr %6) #8
  store i64 0, ptr %6, align 8, !tbaa !4
  store i64 0, ptr %4, align 8, !tbaa !4
  br label %8

8:                                                ; preds = %46, %1
  %9 = load i64, ptr %4, align 8, !tbaa !4
  %10 = load ptr, ptr %2, align 8, !tbaa !8
  %11 = getelementptr inbounds nuw %struct.bitmap, ptr %10, i32 0, i32 1
  %12 = load i64, ptr %11, align 8, !tbaa !14
  %13 = icmp ult i64 %9, %12
  br i1 %13, label %14, label %49

14:                                               ; preds = %8
  %15 = load ptr, ptr %2, align 8, !tbaa !8
  %16 = getelementptr inbounds nuw %struct.bitmap, ptr %15, i32 0, i32 0
  %17 = load ptr, ptr %16, align 8, !tbaa !11
  %18 = load i64, ptr %4, align 8, !tbaa !4
  %19 = getelementptr inbounds nuw i64, ptr %17, i64 %18
  %20 = load i64, ptr %19, align 8, !tbaa !4
  %21 = icmp eq i64 %20, 0
  br i1 %21, label %22, label %25

22:                                               ; preds = %14
  %23 = load i64, ptr %5, align 8, !tbaa !4
  %24 = add i64 %23, 1
  store i64 %24, ptr %5, align 8, !tbaa !4
  br label %46

25:                                               ; preds = %14
  %26 = load i64, ptr %6, align 8, !tbaa !4
  %27 = icmp ne i64 %26, 0
  br i1 %27, label %28, label %32

28:                                               ; preds = %25
  %29 = load ptr, ptr %3, align 8, !tbaa !16
  %30 = load i64, ptr %6, align 8, !tbaa !4
  %31 = call i64 @ewah_add(ptr noundef %29, i64 noundef %30)
  br label %32

32:                                               ; preds = %28, %25
  %33 = load i64, ptr %5, align 8, !tbaa !4
  %34 = icmp ugt i64 %33, 0
  br i1 %34, label %35, label %39

35:                                               ; preds = %32
  %36 = load ptr, ptr %3, align 8, !tbaa !16
  %37 = load i64, ptr %5, align 8, !tbaa !4
  %38 = call i64 @ewah_add_empty_words(ptr noundef %36, i32 noundef 0, i64 noundef %37)
  store i64 0, ptr %5, align 8, !tbaa !4
  br label %39

39:                                               ; preds = %35, %32
  %40 = load ptr, ptr %2, align 8, !tbaa !8
  %41 = getelementptr inbounds nuw %struct.bitmap, ptr %40, i32 0, i32 0
  %42 = load ptr, ptr %41, align 8, !tbaa !11
  %43 = load i64, ptr %4, align 8, !tbaa !4
  %44 = getelementptr inbounds nuw i64, ptr %42, i64 %43
  %45 = load i64, ptr %44, align 8, !tbaa !4
  store i64 %45, ptr %6, align 8, !tbaa !4
  br label %46

46:                                               ; preds = %39, %22
  %47 = load i64, ptr %4, align 8, !tbaa !4
  %48 = add i64 %47, 1
  store i64 %48, ptr %4, align 8, !tbaa !4
  br label %8, !llvm.loop !18

49:                                               ; preds = %8
  %50 = load ptr, ptr %3, align 8, !tbaa !16
  %51 = load i64, ptr %6, align 8, !tbaa !4
  %52 = call i64 @ewah_add(ptr noundef %50, i64 noundef %51)
  %53 = load ptr, ptr %3, align 8, !tbaa !16
  call void @llvm.lifetime.end.p0(i64 8, ptr %6) #8
  call void @llvm.lifetime.end.p0(i64 8, ptr %5) #8
  call void @llvm.lifetime.end.p0(i64 8, ptr %4) #8
  call void @llvm.lifetime.end.p0(i64 8, ptr %3) #8
  ret ptr %53
}