; Function Attrs: nounwind uwtable
define dso_local ptr @bitmap_to_ewah(ptr noundef readonly captures(none) %0) local_unnamed_addr #0 {
  %2 = tail call ptr @ewah_new() #13
  %3 = getelementptr inbounds nuw i8, ptr %0, i64 8
  %4 = load i64, ptr %3, align 8, !tbaa !11
  %.not23 = icmp eq i64 %4, 0
  br i1 %.not23, label %._crit_edge, label %.lr.ph.preheader

.lr.ph.preheader:                                 ; preds = %1
  %.pre = load ptr, ptr %0, align 8, !tbaa !4
  br label %.lr.ph

.lr.ph:                                           ; preds = %.lr.ph.preheader, %22
  %5 = phi i64 [ %23, %22 ], [ %4, %.lr.ph.preheader ]
  %6 = phi ptr [ %24, %22 ], [ %.pre, %.lr.ph.preheader ]
  %.022 = phi i64 [ %.1, %22 ], [ 0, %.lr.ph.preheader ]
  %.01621 = phi i64 [ %.117, %22 ], [ 0, %.lr.ph.preheader ]
  %.01820 = phi i64 [ %25, %22 ], [ 0, %.lr.ph.preheader ]
  %7 = getelementptr inbounds nuw i64, ptr %6, i64 %.01820
  %8 = load i64, ptr %7, align 8, !tbaa !12
  %9 = icmp eq i64 %8, 0
  br i1 %9, label %10, label %12

10:                                               ; preds = %.lr.ph
  %11 = add i64 %.01621, 1
  br label %22

12:                                               ; preds = %.lr.ph
  %.not = icmp eq i64 %.022, 0
  br i1 %.not, label %15, label %13

13:                                               ; preds = %12
  %14 = tail call i64 @ewah_add(ptr noundef %2, i64 noundef %.022) #13
  br label %15

15:                                               ; preds = %13, %12
  %.not19 = icmp eq i64 %.01621, 0
  br i1 %.not19, label %18, label %16

16:                                               ; preds = %15
  %17 = tail call i64 @ewah_add_empty_words(ptr noundef %2, i32 noundef 0, i64 noundef %.01621) #13
  br label %18

18:                                               ; preds = %16, %15
  %19 = load ptr, ptr %0, align 8, !tbaa !4
  %20 = getelementptr inbounds nuw i64, ptr %19, i64 %.01820
  %21 = load i64, ptr %20, align 8, !tbaa !12
  %.pre24 = load i64, ptr %3, align 8, !tbaa !11
  br label %22

22:                                               ; preds = %18, %10
  %23 = phi i64 [ %5, %10 ], [ %.pre24, %18 ]
  %24 = phi ptr [ %6, %10 ], [ %19, %18 ]
  %.117 = phi i64 [ %11, %10 ], [ 0, %18 ]
  %.1 = phi i64 [ %.022, %10 ], [ %21, %18 ]
  %25 = add nuw i64 %.01820, 1
  %26 = icmp ult i64 %25, %23
  br i1 %26, label %.lr.ph, label %._crit_edge, !llvm.loop !13

._crit_edge:                                      ; preds = %22, %1
  %.0.lcssa = phi i64 [ 0, %1 ], [ %.1, %22 ]
  %27 = tail call i64 @ewah_add(ptr noundef %2, i64 noundef %.0.lcssa) #13
  ret ptr %2
}